Certificate:
    Data:
        Version: 3 (0x2)
        Serial Number: 17930507405024648560 (0xf8d5f57c27015d70)
    Signature Algorithm: sha256WithRSAEncryption
        Issuer: C=NG, ST=Lagos State, O=Example Inc, CN=mail.example.org
        Validity
            Not Before: Apr  1 16:06:56 2017 GMT
            Not After : Apr  1 16:06:56 2018 GMT
        Subject: C=NG, ST=Lagos State, O=Example Inc, CN=example.org
        Subject Public Key Info:
            Public Key Algorithm: rsaEncryption
                Public-Key: (2048 bit)
                Modulus:
                    00:df:3b:1f:26:02:e8:6d:d0:d1:e5:f5:da:9d:ed:
                    e7:75:2c:e4:d5:a4:37:5f:e7:2a:e3:b3:e6:d5:d5:
                    3a:19:56:af:e2:fa:d8:1c:5b:91:7c:c3:bf:1f:98:
                    4d:d9:2a:21:86:c5:ff:c5:16:ec:c5:08:ee:9f:0d:
                    c6:2e:10:15:c6:78:b7:e6:f4:ef:eb:9c:ea:82:83:
                    da:1e:7c:62:ba:a9:4b:5c:51:ea:0a:79:64:2c:94:
                    4f:88:c0:17:f5:6c:92:9f:96:d6:33:b3:93:cd:a5:
                    77:80:b1:70:76:c8:3e:c4:34:d0:ac:62:6d:d8:de:
                    c2:ae:20:e6:22:2b:db:ed:24:09:1b:d2:03:a3:a4:
                    c5:ff:ee:d0:cb:96:d3:48:d0:96:d8:38:6e:75:e6:
                    7b:26:4b:2f:55:2d:2d:6d:45:a6:99:cb:6a:3b:d5:
                    78:2e:45:ad:17:8e:ba:38:6d:e8:93:09:1f:6c:fa:
                    07:79:38:39:50:77:c6:ea:98:0c:8a:6b:b6:bb:40:
                    0c:eb:73:93:64:a3:b4:8e:3b:a7:85:00:2b:7e:25:
                    d5:b2:0b:b0:8c:c0:61:c5:c6:f6:8c:8f:c3:f4:60:
                    d6:b5:62:22:9e:42:d8:68:06:24:51:47:fe:7f:db:
                    0b:d2:38:5b:24:1b:51:88:9a:d0:90:5e:b6:ab:da:
                    68:e7
                Exponent: 65537 (0x10001)
        X509v3 extensions:
            X509v3 Basic Constraints: 
                CA:FALSE
            Netscape Comment: 
                OpenSSL Generated Certificate
            X509v3 Subject Key Identifier: 
                40:A7:80:CC:A6:E9:65:B7:AB:E3:2E:96:02:DE:5D:C1:9C:28:0A:D7
            X509v3 Authority Key Identifier: 
                keyid:72:84:5D:97:B5:7D:14:6B:9D:74:1C:21:8E:BF:AE:9E:11:C3:51:0F

    Signature Algorithm: sha256WithRSAEncryption
         26:d1:7b:0e:e3:fc:ce:20:b0:d1:d5:bf:6f:21:ef:cd:e0:85:
         ee:28:17:ef:5f:60:b8:d1:b4:de:85:a2:93:89:50:0d:45:71:
         07:50:e9:a7:d8:73:68:75:f6:7c:ed:c4:57:a8:37:96:ac:e6:
         af:7e:d3:d3:e7:f4:a5:9c:14:93:16:91:4c:3e:30:f9:df:6e:
         a1:45:5a:46:c0:25:8e:43:b3:93:1d:2d:e9:1c:22:f6:31:8d:
         4f:6e:a1:56:ae:1a:7b:f8:65:3f:ae:14:c6:c4:be:70:78:b3:
         c6:fe:47:52:07:8b:83:2d:b1:e2:8e:60:b6:a0:79:9c:75:d0:
         e8:af:bc:80:9d:f1:d4:fa:39:d7:61:39:c2:39:84:b5:78:8c:
         69:3b:99:43:07:64:ce:41:fb:c3:7b:6b:ae:1a:66:71:d6:79:
         1f:0f:bd:8a:77:94:c6:a6:c1:ef:d8:c6:37:92:e9:26:2a:c5:
         3a:72:e5:68:8b:0b:60:cf:92:62:71:0a:98:07:57:38:eb:2c:
         c1:5f:dc:65:5e:82:cc:ed:11:53:08:10:90:2f:3f:75:bd:32:
         e0:ec:e3:e5:83:fe:fd:a7:54:71:1b:0c:b3:73:d0:2a:6f:e2:
         b2:97:ae:3f:19:a9:4d:67:9a:78:7c:0f:b7:50:36:e2:7d:81:
         51:ff:b3:45
-----BEGIN CERTIFICATE-----
MIIDoTCCAomgAwIBAgIJAPjV9XwnAV1wMA0GCSqGSIb3DQEBCwUAMFQxCzAJBgNV
BAYTAk5HMRQwEgYDVQQIDAtMYWdvcyBTdGF0ZTEUMBIGA1UECgwLRXhhbXBsZSBJ
bmMxGTAXBgNVBAMMEG1haWwuZXhhbXBsZS5vcmcwHhcNMTcwNDAxMTYwNjU2WhcN
MTgwNDAxMTYwNjU2WjBPMQswCQYDVQQGEwJORzEUMBIGA1UECAwLTGFnb3MgU3Rh
dGUxFDASBgNVBAoMC0V4YW1wbGUgSW5jMRQwEgYDVQQDDAtleGFtcGxlLm9yZzCC
ASIwDQYJKoZIhvcNAQEBBQADggEPADCCAQoCggEBAN87HyYC6G3Q0eX12p3t53Us
5NWkN1/nKuOz5tXVOhlWr+L62BxbkXzDvx+YTdkqIYbF/8UW7MUI7p8Nxi4QFcZ4
t+b07+uc6oKD2h58YrqpS1xR6gp5ZCyUT4jAF/Vskp+W1jOzk82ld4CxcHbIPsQ0
0Kxibdjewq4g5iIr2+0kCRvSA6Okxf/u0MuW00jQltg4bnXmeyZLL1UtLW1FppnL
ajvVeC5FrReOujht6JMJH2z6B3k4OVB3xuqYDIprtrtADOtzk2SjtI47p4UAK34l
1bILsIzAYcXG9oyPw/Rg1rViIp5C2GgGJFFH/n/bC9I4WyQbUYia0JBetqvaaOcC
AwEAAaN7MHkwCQYDVR0TBAIwADAsBglghkgBhvhCAQ0EHxYdT3BlblNTTCBHZW5l
cmF0ZWQgQ2VydGlmaWNhdGUwHQYDVR0OBBYEFECngMym6WW3q+MulgLeXcGcKArX
MB8GA1UdIwQYMBaAFHKEXZe1fRRrnXQcIY6/rp4Rw1EPMA0GCSqGSIb3DQEBCwUA
A4IBAQAm0XsO4/zOILDR1b9vIe/N4IXuKBfvX2C40bTehaKTiVANRXEHUOmn2HNo
dfZ87cRXqDeWrOavftPT5/SlnBSTFpFMPjD5326hRVpGwCWOQ7OTHS3pHCL2MY1P
bqFWrhp7+GU/rhTGxL5weLPG/kdSB4uDLbHijmC2oHmcddDor7yAnfHU+jnXYTnC
OYS1eIxpO5lDB2TOQfvDe2uuGmZx1nkfD72Kd5TGpsHv2MY3kukmKsU6cuVoiwtg
z5JicQqYB1c46yzBX9xlXoLM7RFTCBCQLz91vTLg7OPlg/79p1RxGwyzc9Aqb+Ky
l64/GalNZ5p4fA+3UDbifYFR/7NF
-----END CERTIFICATE-----
