Certificate:
    Data:
        Version: 3 (0x2)
        Serial Number: 17930507405024648559 (0xf8d5f57c27015d6f)
    Signature Algorithm: sha256WithRSAEncryption
        Issuer: C=NG, ST=Lagos State, O=Example Inc, CN=mail.example.org
        Validity
            Not Before: Apr  1 16:03:30 2017 GMT
            Not After : Mar 31 16:03:30 2020 GMT
        Subject: C=NG, ST=Lagos State, O=Example Inc, CN=mail.example.org
        Subject Public Key Info:
            Public Key Algorithm: rsaEncryption
                Public-Key: (2048 bit)
                Modulus:
                    00:d5:e4:69:27:a7:20:46:9e:23:9b:66:88:1e:13:
                    ec:55:62:25:34:0e:cd:43:7d:79:74:d5:1b:eb:ae:
                    75:54:99:f7:d1:70:a6:0a:04:82:fc:e4:b4:88:6b:
                    a0:15:ab:ad:e6:18:59:14:5f:07:be:08:5e:84:2b:
                    10:e1:65:6f:d8:8b:f8:67:43:0e:1a:32:b7:16:73:
                    f6:bf:01:53:5d:d6:c7:94:ed:64:9c:65:6b:47:0b:
                    aa:3a:5d:79:b2:79:ff:cb:89:a2:73:b2:ab:e8:14:
                    b4:2e:e9:92:ef:20:59:26:94:2b:04:5f:c3:6d:c2:
                    2e:8f:3f:8d:7f:8a:e6:39:a9:42:1d:c8:b9:45:c8:
                    70:3a:cf:fe:86:41:14:24:34:1f:20:82:1b:19:d4:
                    91:89:01:2f:a5:57:af:9f:45:1b:b8:7b:3a:32:18:
                    1a:b9:97:0c:21:ed:92:92:ea:e1:c9:f7:19:51:eb:
                    cb:f6:16:0a:fd:9f:fc:21:47:e1:d6:78:48:c2:d0:
                    2f:09:79:ca:30:1d:be:1f:6c:1c:2b:22:88:6b:5e:
                    27:f0:e4:60:ad:4d:58:df:a0:51:3f:d1:c0:f9:eb:
                    3f:cc:6d:12:d4:7e:91:44:73:14:33:33:d4:ac:fa:
                    84:91:2d:df:ed:e3:60:9c:36:c2:b6:7e:e2:f8:5d:
                    2d:79
                Exponent: 65537 (0x10001)
        X509v3 extensions:
            X509v3 Subject Key Identifier: 
                72:84:5D:97:B5:7D:14:6B:9D:74:1C:21:8E:BF:AE:9E:11:C3:51:0F
            X509v3 Authority Key Identifier: 
                keyid:72:84:5D:97:B5:7D:14:6B:9D:74:1C:21:8E:BF:AE:9E:11:C3:51:0F

            X509v3 Basic Constraints: 
                CA:TRUE
    Signature Algorithm: sha256WithRSAEncryption
         24:5d:86:37:55:c8:1f:90:ca:16:f9:a3:d7:5e:ab:78:28:d8:
         91:ec:dc:1c:43:58:9a:17:30:0a:04:69:ec:85:b8:5b:a6:5e:
         e7:83:15:7c:9e:cf:ae:a1:58:59:54:12:55:94:1b:ba:de:2c:
         06:42:d8:ed:0d:f0:cb:9f:5f:81:d4:77:f3:96:7b:b4:46:db:
         5b:46:b2:aa:66:dd:66:1b:b9:0f:82:0b:d2:c3:39:e9:53:4b:
         2f:d7:df:7e:66:f3:47:0d:be:a2:ad:51:30:96:3d:d0:83:a1:
         9d:e5:16:4b:b9:98:a4:20:d9:89:25:ed:25:20:ea:38:70:0b:
         a6:d0:be:34:39:4f:1e:23:4d:92:ba:92:e6:ec:9b:25:26:95:
         f5:bf:e3:a5:8e:be:f2:80:75:2d:73:4a:b6:88:47:f1:df:23:
         63:67:1d:aa:04:c5:5d:5d:ed:d5:fe:1f:fe:75:a4:91:8f:ad:
         58:ca:6b:bb:d3:89:c1:51:d7:33:d5:a2:09:ae:28:0d:08:6e:
         d8:0b:8b:59:d6:ae:f3:c1:7d:6f:81:19:cc:24:af:b8:98:a3:
         02:95:33:f0:a5:cf:a3:b1:2b:87:06:b9:d0:54:16:61:09:8b:
         64:df:a5:1a:97:a6:a3:b2:a4:c0:cc:a3:0e:c6:d7:57:06:3c:
         81:5c:3c:b7
-----BEGIN CERTIFICATE-----
MIIDezCCAmOgAwIBAgIJAPjV9XwnAV1vMA0GCSqGSIb3DQEBCwUAMFQxCzAJBgNV
BAYTAk5HMRQwEgYDVQQIDAtMYWdvcyBTdGF0ZTEUMBIGA1UECgwLRXhhbXBsZSBJ
bmMxGTAXBgNVBAMMEG1haWwuZXhhbXBsZS5vcmcwHhcNMTcwNDAxMTYwMzMwWhcN
MjAwMzMxMTYwMzMwWjBUMQswCQYDVQQGEwJORzEUMBIGA1UECAwLTGFnb3MgU3Rh
dGUxFDASBgNVBAoMC0V4YW1wbGUgSW5jMRkwFwYDVQQDDBBtYWlsLmV4YW1wbGUu
b3JnMIIBIjANBgkqhkiG9w0BAQEFAAOCAQ8AMIIBCgKCAQEA1eRpJ6cgRp4jm2aI
HhPsVWIlNA7NQ315dNUb6651VJn30XCmCgSC/OS0iGugFaut5hhZFF8HvghehCsQ
4WVv2Iv4Z0MOGjK3FnP2vwFTXdbHlO1knGVrRwuqOl15snn/y4mic7Kr6BS0LumS
7yBZJpQrBF/DbcIujz+Nf4rmOalCHci5RchwOs/+hkEUJDQfIIIbGdSRiQEvpVev
n0UbuHs6MhgauZcMIe2SkurhyfcZUevL9hYK/Z/8IUfh1nhIwtAvCXnKMB2+H2wc
KyKIa14n8ORgrU1Y36BRP9HA+es/zG0S1H6RRHMUMzPUrPqEkS3f7eNgnDbCtn7i
+F0teQIDAQABo1AwTjAdBgNVHQ4EFgQUcoRdl7V9FGuddBwhjr+unhHDUQ8wHwYD
VR0jBBgwFoAUcoRdl7V9FGuddBwhjr+unhHDUQ8wDAYDVR0TBAUwAwEB/zANBgkq
hkiG9w0BAQsFAAOCAQEAJF2GN1XIH5DKFvmj116reCjYkezcHENYmhcwCgRp7IW4
W6Ze54MVfJ7PrqFYWVQSVZQbut4sBkLY7Q3wy59fgdR385Z7tEbbW0ayqmbdZhu5
D4IL0sM56VNLL9fffmbzRw2+oq1RMJY90IOhneUWS7mYpCDZiSXtJSDqOHALptC+
NDlPHiNNkrqS5uybJSaV9b/jpY6+8oB1LXNKtohH8d8jY2cdqgTFXV3t1f4f/nWk
kY+tWMpru9OJwVHXM9WiCa4oDQhu2AuLWdau88F9b4EZzCSvuJijApUz8KXPo7Er
hwa50FQWYQmLZN+lGpemo7KkwMyjDsbXVwY8gVw8tw==
-----END CERTIFICATE-----
